; Function Attrs: mustprogress uwtable
define noundef i64 @_ZN5arrow10union_util26LogicalDenseUnionNullCountERKNS_9ArraySpanE(ptr noundef nonnull readonly align 8 captures(none) dereferenceable(128) %0) local_unnamed_addr #0 {
  %2 = getelementptr inbounds nuw i8, ptr %0, i64 24
  %3 = load i64, ptr %2, align 8, !tbaa !3
  %4 = getelementptr inbounds nuw i8, ptr %0, i64 56
  %5 = load ptr, ptr %4, align 8, !tbaa !15
  %6 = getelementptr inbounds i8, ptr %5, i64 %3
  %7 = getelementptr inbounds nuw i8, ptr %0, i64 80
  %8 = load ptr, ptr %7, align 8, !tbaa !15
  %9 = getelementptr inbounds i32, ptr %8, i64 %3
  %10 = getelementptr inbounds nuw i8, ptr %0, i64 8
  %11 = load i64, ptr %10, align 8, !tbaa !19
  %12 = icmp sgt i64 %11, 0
  br i1 %12, label %.lr.ph, label %._crit_edge

.lr.ph:                                           ; preds = %1
  %13 = load ptr, ptr %0, align 8, !tbaa !20
  %14 = getelementptr inbounds nuw i8, ptr %13, i64 96
  %15 = getelementptr inbounds nuw i8, ptr %0, i64 104
  br label %16

._crit_edge:                                      ; preds = %_ZNK5arrow9ArraySpan6IsNullEl.exit, %1
  %.0.lcssa = phi i64 [ 0, %1 ], [ %69, %_ZNK5arrow9ArraySpan6IsNullEl.exit ]
  ret i64 %.0.lcssa

16:                                               ; preds = %.lr.ph, %_ZNK5arrow9ArraySpan6IsNullEl.exit
  %.019 = phi i64 [ 0, %.lr.ph ], [ %69, %_ZNK5arrow9ArraySpan6IsNullEl.exit ]
  %.01718 = phi i64 [ 0, %.lr.ph ], [ %70, %_ZNK5arrow9ArraySpan6IsNullEl.exit ]
  %17 = load i64, ptr %2, align 8, !tbaa !3
  %18 = getelementptr i8, ptr %6, i64 %17
  %19 = getelementptr i8, ptr %18, i64 %.01718
  %20 = load i8, ptr %19, align 1, !tbaa !21
  %21 = sext i8 %20 to i64
  %22 = load ptr, ptr %14, align 8, !tbaa !22
  %23 = getelementptr inbounds nuw i32, ptr %22, i64 %21
  %24 = load i32, ptr %23, align 4, !tbaa !25
  %25 = zext i32 %24 to i64
  %26 = getelementptr i32, ptr %9, i64 %17
  %27 = getelementptr i32, ptr %26, i64 %.01718
  %28 = load i32, ptr %27, align 4, !tbaa !25
  %sext = shl i64 %25, 56
  %29 = load ptr, ptr %15, align 8, !tbaa !27
  %30 = ashr exact i64 %sext, 49
  %31 = getelementptr inbounds nuw i8, ptr %29, i64 %30
  %32 = sext i32 %28 to i64
  %33 = getelementptr inbounds nuw i8, ptr %31, i64 32
  %34 = load ptr, ptr %33, align 8, !tbaa !15
  %.not.i.i = icmp eq ptr %34, null
  br i1 %.not.i.i, label %48, label %35

35:                                               ; preds = %16
  %36 = getelementptr inbounds nuw i8, ptr %31, i64 24
  %37 = load i64, ptr %36, align 8, !tbaa !3
  %38 = add nsw i64 %37, %32
  %39 = lshr i64 %38, 3
  %40 = getelementptr inbounds nuw i8, ptr %34, i64 %39
  %41 = load i8, ptr %40, align 1, !tbaa !21
  %42 = zext i8 %41 to i32
  %43 = trunc i64 %38 to i32
  %44 = and i32 %43, 7
  %45 = shl nuw nsw i32 1, %44
  %46 = and i32 %45, %42
  %47 = icmp ne i32 %46, 0
  br label %_ZNK5arrow9ArraySpan6IsNullEl.exit

48:                                               ; preds = %16
  %49 = load ptr, ptr %31, align 8, !tbaa !28
  %50 = getelementptr inbounds nuw i8, ptr %49, i64 40
  %51 = load i32, ptr %50, align 8, !tbaa !29
  switch i32 %51, label %61 [
    i32 27, label %52
    i32 28, label %55
    i32 38, label %58
  ]

52:                                               ; preds = %48
  %53 = tail call noundef zeroext i1 @_ZNK5arrow9ArraySpan17IsNullSparseUnionEl(ptr noundef nonnull align 8 dereferenceable(128) %31, i64 noundef %32)
  %54 = xor i1 %53, true
  br label %_ZNK5arrow9ArraySpan6IsNullEl.exit

55:                                               ; preds = %48
  %56 = tail call noundef zeroext i1 @_ZNK5arrow9ArraySpan16IsNullDenseUnionEl(ptr noundef nonnull align 8 dereferenceable(128) %31, i64 noundef %32)
  %57 = xor i1 %56, true
  br label %_ZNK5arrow9ArraySpan6IsNullEl.exit

58:                                               ; preds = %48
  %59 = tail call noundef zeroext i1 @_ZNK5arrow9ArraySpan19IsNullRunEndEncodedEl(ptr noundef nonnull align 8 dereferenceable(128) %31, i64 noundef %32)
  %60 = xor i1 %59, true
  br label %_ZNK5arrow9ArraySpan6IsNullEl.exit

61:                                               ; preds = %48
  %62 = getelementptr inbounds nuw i8, ptr %31, i64 16
  %63 = load i64, ptr %62, align 8, !tbaa !46
  %64 = getelementptr inbounds nuw i8, ptr %31, i64 8
  %65 = load i64, ptr %64, align 8, !tbaa !19
  %66 = icmp ne i64 %63, %65
  br label %_ZNK5arrow9ArraySpan6IsNullEl.exit

_ZNK5arrow9ArraySpan6IsNullEl.exit:               ; preds = %35, %52, %55, %58, %61
  %.0.i.i = phi i1 [ %47, %35 ], [ %54, %52 ], [ %57, %55 ], [ %60, %58 ], [ %66, %61 ]
  %67 = xor i1 %.0.i.i, true
  %68 = zext i1 %67 to i64
  %69 = add nuw nsw i64 %.019, %68
  %70 = add nuw nsw i64 %.01718, 1
  %71 = load i64, ptr %10, align 8, !tbaa !19
  %72 = icmp slt i64 %70, %71
  br i1 %72, label %16, label %._crit_edge, !llvm.loop !49
}